target datalayout = "e-m:e-p270:32:32-p271:32:32-p272:64:64-i64:64-i128:128-f80:128-n8:16:32:64-S128"
target triple = "x86_64-pc-linux-gnu"

@.str.12 = private unnamed_addr constant [19 x i8] c"./certs/dh2048.pem\00", align 1
@.str.13 = private unnamed_addr constant [24 x i8] c"./certs/client-cert.pem\00", align 1
@.str.14 = private unnamed_addr constant [24 x i8] c"./certs/server-cert.pem\00", align 1
@.str.15 = private unnamed_addr constant [23 x i8] c"./certs/server-key.pem\00", align 1
@lng_index = internal global i32 0, align 4
@.str.75 = private unnamed_addr constant [7 x i8] c"%s%s%s\00", align 1
@.str.76 = private unnamed_addr constant [8 x i8] c"server \00", align 1
@.str.77 = private unnamed_addr constant [6 x i8] c"5.7.6\00", align 1
@.str.78 = private unnamed_addr constant [3 x i8] c"%s\00", align 1
@.str.79 = private unnamed_addr constant [7 x i8] c"%s %d\0A\00", align 1
@.str.80 = private unnamed_addr constant [7 x i8] c"%s %s\0A\00", align 1
@.str.81 = private unnamed_addr constant [36 x i8] c"-2          Disable DH Prime check\0A\00", align 1

; Function Attrs: nounwind uwtable
define internal void @Usage() #0 {
  %1 = alloca i32, align 4
  %2 = alloca ptr, align 8
  call void @llvm.lifetime.start.p0(i64 4, ptr %1) #13
  store i32 0, ptr %1, align 4, !tbaa !9
  call void @llvm.lifetime.start.p0(i64 8, ptr %2) #13
  %3 = load i32, ptr @lng_index, align 4, !tbaa !9
  %4 = sext i32 %3 to i64
  %5 = getelementptr inbounds [2 x [66 x ptr]], ptr @server_usage_msg, i64 0, i64 %4
  %6 = getelementptr inbounds [66 x ptr], ptr %5, i64 0, i64 0
  store ptr %6, ptr %2, align 8, !tbaa !39
  %7 = load ptr, ptr %2, align 8, !tbaa !39
  %8 = load i32, ptr %1, align 4, !tbaa !9
  %9 = sext i32 %8 to i64
  %10 = getelementptr inbounds ptr, ptr %7, i64 %9
  %11 = load ptr, ptr %10, align 8, !tbaa !15
  %12 = call i32 (ptr, ...) @printf(ptr noundef @.str.75, ptr noundef @.str.76, ptr noundef @.str.77, ptr noundef %11)
  %13 = load ptr, ptr %2, align 8, !tbaa !39
  %14 = load i32, ptr %1, align 4, !tbaa !9
  %15 = add nsw i32 %14, 1
  store i32 %15, ptr %1, align 4, !tbaa !9
  %16 = sext i32 %15 to i64
  %17 = getelementptr inbounds ptr, ptr %13, i64 %16
  %18 = load ptr, ptr %17, align 8, !tbaa !15
  %19 = call i32 (ptr, ...) @printf(ptr noundef @.str.78, ptr noundef %18)
  %20 = load ptr, ptr %2, align 8, !tbaa !39
  %21 = load i32, ptr %1, align 4, !tbaa !9
  %22 = add nsw i32 %21, 1
  store i32 %22, ptr %1, align 4, !tbaa !9
  %23 = sext i32 %22 to i64
  %24 = getelementptr inbounds ptr, ptr %20, i64 %23
  %25 = load ptr, ptr %24, align 8, !tbaa !15
  %26 = call i32 (ptr, ...) @printf(ptr noundef @.str.79, ptr noundef %25, i32 noundef 11111)
  %27 = load ptr, ptr %2, align 8, !tbaa !39
  %28 = load i32, ptr %1, align 4, !tbaa !9
  %29 = add nsw i32 %28, 1
  store i32 %29, ptr %1, align 4, !tbaa !9
  %30 = sext i32 %29 to i64
  %31 = getelementptr inbounds ptr, ptr %27, i64 %30
  %32 = load ptr, ptr %31, align 8, !tbaa !15
  %33 = call i32 (ptr, ...) @printf(ptr noundef @.str.79, ptr noundef %32, i32 noundef 3)
  %34 = load ptr, ptr %2, align 8, !tbaa !39
  %35 = load i32, ptr %1, align 4, !tbaa !9
  %36 = add nsw i32 %35, 1
  store i32 %36, ptr %1, align 4, !tbaa !9
  %37 = sext i32 %36 to i64
  %38 = getelementptr inbounds ptr, ptr %34, i64 %37
  %39 = load ptr, ptr %38, align 8, !tbaa !15
  %40 = call i32 (ptr, ...) @printf(ptr noundef @.str.78, ptr noundef %39)
  %41 = load ptr, ptr %2, align 8, !tbaa !39
  %42 = load i32, ptr %1, align 4, !tbaa !9
  %43 = add nsw i32 %42, 1
  store i32 %43, ptr %1, align 4, !tbaa !9
  %44 = sext i32 %43 to i64
  %45 = getelementptr inbounds ptr, ptr %41, i64 %44
  %46 = load ptr, ptr %45, align 8, !tbaa !15
  %47 = call i32 (ptr, ...) @printf(ptr noundef @.str.80, ptr noundef %46, ptr noundef @.str.14)
  %48 = load ptr, ptr %2, align 8, !tbaa !39
  %49 = load i32, ptr %1, align 4, !tbaa !9
  %50 = add nsw i32 %49, 1
  store i32 %50, ptr %1, align 4, !tbaa !9
  %51 = sext i32 %50 to i64
  %52 = getelementptr inbounds ptr, ptr %48, i64 %51
  %53 = load ptr, ptr %52, align 8, !tbaa !15
  %54 = call i32 (ptr, ...) @printf(ptr noundef @.str.80, ptr noundef %53, ptr noundef @.str.15)
  %55 = load ptr, ptr %2, align 8, !tbaa !39
  %56 = load i32, ptr %1, align 4, !tbaa !9
  %57 = add nsw i32 %56, 1
  store i32 %57, ptr %1, align 4, !tbaa !9
  %58 = sext i32 %57 to i64
  %59 = getelementptr inbounds ptr, ptr %55, i64 %58
  %60 = load ptr, ptr %59, align 8, !tbaa !15
  %61 = call i32 (ptr, ...) @printf(ptr noundef @.str.80, ptr noundef %60, ptr noundef @.str.13)
  %62 = load ptr, ptr %2, align 8, !tbaa !39
  %63 = load i32, ptr %1, align 4, !tbaa !9
  %64 = add nsw i32 %63, 1
  store i32 %64, ptr %1, align 4, !tbaa !9
  %65 = sext i32 %64 to i64
  %66 = getelementptr inbounds ptr, ptr %62, i64 %65
  %67 = load ptr, ptr %66, align 8, !tbaa !15
  %68 = call i32 (ptr, ...) @printf(ptr noundef @.str.78, ptr noundef %67)
  %69 = load ptr, ptr %2, align 8, !tbaa !39
  %70 = load i32, ptr %1, align 4, !tbaa !9
  %71 = add nsw i32 %70, 1
  store i32 %71, ptr %1, align 4, !tbaa !9
  %72 = sext i32 %71 to i64
  %73 = getelementptr inbounds ptr, ptr %69, i64 %72
  %74 = load ptr, ptr %73, align 8, !tbaa !15
  %75 = call i32 (ptr, ...) @printf(ptr noundef @.str.80, ptr noundef %74, ptr noundef @.str.12)
  %76 = load ptr, ptr %2, align 8, !tbaa !39
  %77 = load i32, ptr %1, align 4, !tbaa !9
  %78 = add nsw i32 %77, 1
  store i32 %78, ptr %1, align 4, !tbaa !9
  %79 = sext i32 %78 to i64
  %80 = getelementptr inbounds ptr, ptr %76, i64 %79
  %81 = load ptr, ptr %80, align 8, !tbaa !15
  %82 = call i32 (ptr, ...) @printf(ptr noundef @.str.79, ptr noundef %81, i32 noundef 1024)
  %83 = load ptr, ptr %2, align 8, !tbaa !39
  %84 = load i32, ptr %1, align 4, !tbaa !9
  %85 = add nsw i32 %84, 1
  store i32 %85, ptr %1, align 4, !tbaa !9
  %86 = sext i32 %85 to i64
  %87 = getelementptr inbounds ptr, ptr %83, i64 %86
  %88 = load ptr, ptr %87, align 8, !tbaa !15
  %89 = call i32 (ptr, ...) @printf(ptr noundef @.str.78, ptr noundef %88)
  %90 = load ptr, ptr %2, align 8, !tbaa !39
  %91 = load i32, ptr %1, align 4, !tbaa !9
  %92 = add nsw i32 %91, 1
  store i32 %92, ptr %1, align 4, !tbaa !9
  %93 = sext i32 %92 to i64
  %94 = getelementptr inbounds ptr, ptr %90, i64 %93
  %95 = load ptr, ptr %94, align 8, !tbaa !15
  %96 = call i32 (ptr, ...) @printf(ptr noundef @.str.78, ptr noundef %95)
  %97 = load ptr, ptr %2, align 8, !tbaa !39
  %98 = load i32, ptr %1, align 4, !tbaa !9
  %99 = add nsw i32 %98, 1
  store i32 %99, ptr %1, align 4, !tbaa !9
  %100 = sext i32 %99 to i64
  %101 = getelementptr inbounds ptr, ptr %97, i64 %100
  %102 = load ptr, ptr %101, align 8, !tbaa !15
  %103 = call i32 (ptr, ...) @printf(ptr noundef @.str.78, ptr noundef %102)
  %104 = load ptr, ptr %2, align 8, !tbaa !39
  %105 = load i32, ptr %1, align 4, !tbaa !9
  %106 = add nsw i32 %105, 1
  store i32 %106, ptr %1, align 4, !tbaa !9
  %107 = sext i32 %106 to i64
  %108 = getelementptr inbounds ptr, ptr %104, i64 %107
  %109 = load ptr, ptr %108, align 8, !tbaa !15
  %110 = call i32 (ptr, ...) @printf(ptr noundef @.str.78, ptr noundef %109)
  %111 = load ptr, ptr %2, align 8, !tbaa !39
  %112 = load i32, ptr %1, align 4, !tbaa !9
  %113 = add nsw i32 %112, 1
  store i32 %113, ptr %1, align 4, !tbaa !9
  %114 = sext i32 %113 to i64
  %115 = getelementptr inbounds ptr, ptr %111, i64 %114
  %116 = load ptr, ptr %115, align 8, !tbaa !15
  %117 = call i32 (ptr, ...) @printf(ptr noundef @.str.78, ptr noundef %116)
  %118 = load ptr, ptr %2, align 8, !tbaa !39
  %119 = load i32, ptr %1, align 4, !tbaa !9
  %120 = add nsw i32 %119, 1
  store i32 %120, ptr %1, align 4, !tbaa !9
  %121 = sext i32 %120 to i64
  %122 = getelementptr inbounds ptr, ptr %118, i64 %121
  %123 = load ptr, ptr %122, align 8, !tbaa !15
  %124 = call i32 (ptr, ...) @printf(ptr noundef @.str.78, ptr noundef %123)
  %125 = load ptr, ptr %2, align 8, !tbaa !39
  %126 = load i32, ptr %1, align 4, !tbaa !9
  %127 = add nsw i32 %126, 1
  store i32 %127, ptr %1, align 4, !tbaa !9
  %128 = sext i32 %127 to i64
  %129 = getelementptr inbounds ptr, ptr %125, i64 %128
  %130 = load ptr, ptr %129, align 8, !tbaa !15
  %131 = call i32 (ptr, ...) @printf(ptr noundef @.str.78, ptr noundef %130)
  %132 = load ptr, ptr %2, align 8, !tbaa !39
  %133 = load i32, ptr %1, align 4, !tbaa !9
  %134 = add nsw i32 %133, 1
  store i32 %134, ptr %1, align 4, !tbaa !9
  %135 = sext i32 %134 to i64
  %136 = getelementptr inbounds ptr, ptr %132, i64 %135
  %137 = load ptr, ptr %136, align 8, !tbaa !15
  %138 = call i32 (ptr, ...) @printf(ptr noundef @.str.78, ptr noundef %137)
  %139 = load ptr, ptr %2, align 8, !tbaa !39
  %140 = load i32, ptr %1, align 4, !tbaa !9
  %141 = add nsw i32 %140, 1
  store i32 %141, ptr %1, align 4, !tbaa !9
  %142 = sext i32 %141 to i64
  %143 = getelementptr inbounds ptr, ptr %139, i64 %142
  %144 = load ptr, ptr %143, align 8, !tbaa !15
  %145 = call i32 (ptr, ...) @printf(ptr noundef @.str.78, ptr noundef %144)
  %146 = load ptr, ptr %2, align 8, !tbaa !39
  %147 = load i32, ptr %1, align 4, !tbaa !9
  %148 = add nsw i32 %147, 1
  store i32 %148, ptr %1, align 4, !tbaa !9
  %149 = sext i32 %148 to i64
  %150 = getelementptr inbounds ptr, ptr %146, i64 %149
  %151 = load ptr, ptr %150, align 8, !tbaa !15
  %152 = call i32 (ptr, ...) @printf(ptr noundef @.str.78, ptr noundef %151)
  %153 = load ptr, ptr %2, align 8, !tbaa !39
  %154 = load i32, ptr %1, align 4, !tbaa !9
  %155 = add nsw i32 %154, 1
  store i32 %155, ptr %1, align 4, !tbaa !9
  %156 = sext i32 %155 to i64
  %157 = getelementptr inbounds ptr, ptr %153, i64 %156
  %158 = load ptr, ptr %157, align 8, !tbaa !15
  %159 = call i32 (ptr, ...) @printf(ptr noundef @.str.78, ptr noundef %158)
  %160 = load ptr, ptr %2, align 8, !tbaa !39
  %161 = load i32, ptr %1, align 4, !tbaa !9
  %162 = add nsw i32 %161, 1
  store i32 %162, ptr %1, align 4, !tbaa !9
  %163 = sext i32 %162 to i64
  %164 = getelementptr inbounds ptr, ptr %160, i64 %163
  %165 = load ptr, ptr %164, align 8, !tbaa !15
  %166 = call i32 (ptr, ...) @printf(ptr noundef @.str.78, ptr noundef %165)
  %167 = load ptr, ptr %2, align 8, !tbaa !39
  %168 = load i32, ptr %1, align 4, !tbaa !9
  %169 = add nsw i32 %168, 1
  store i32 %169, ptr %1, align 4, !tbaa !9
  %170 = sext i32 %169 to i64
  %171 = getelementptr inbounds ptr, ptr %167, i64 %170
  %172 = load ptr, ptr %171, align 8, !tbaa !15
  %173 = call i32 (ptr, ...) @printf(ptr noundef @.str.78, ptr noundef %172)
  %174 = load ptr, ptr %2, align 8, !tbaa !39
  %175 = load i32, ptr %1, align 4, !tbaa !9
  %176 = add nsw i32 %175, 1
  store i32 %176, ptr %1, align 4, !tbaa !9
  %177 = sext i32 %176 to i64
  %178 = getelementptr inbounds ptr, ptr %174, i64 %177
  %179 = load ptr, ptr %178, align 8, !tbaa !15
  %180 = call i32 (ptr, ...) @printf(ptr noundef @.str.78, ptr noundef %179)
  %181 = load ptr, ptr %2, align 8, !tbaa !39
  %182 = load i32, ptr %1, align 4, !tbaa !9
  %183 = add nsw i32 %182, 1
  store i32 %183, ptr %1, align 4, !tbaa !9
  %184 = sext i32 %183 to i64
  %185 = getelementptr inbounds ptr, ptr %181, i64 %184
  %186 = load ptr, ptr %185, align 8, !tbaa !15
  %187 = call i32 (ptr, ...) @printf(ptr noundef @.str.78, ptr noundef %186)
  %188 = load ptr, ptr %2, align 8, !tbaa !39
  %189 = load i32, ptr %1, align 4, !tbaa !9
  %190 = add nsw i32 %189, 1
  store i32 %190, ptr %1, align 4, !tbaa !9
  %191 = sext i32 %190 to i64
  %192 = getelementptr inbounds ptr, ptr %188, i64 %191
  %193 = load ptr, ptr %192, align 8, !tbaa !15
  %194 = call i32 (ptr, ...) @printf(ptr noundef @.str.78, ptr noundef %193)
  %195 = load ptr, ptr %2, align 8, !tbaa !39
  %196 = load i32, ptr %1, align 4, !tbaa !9
  %197 = add nsw i32 %196, 1
  store i32 %197, ptr %1, align 4, !tbaa !9
  %198 = sext i32 %197 to i64
  %199 = getelementptr inbounds ptr, ptr %195, i64 %198
  %200 = load ptr, ptr %199, align 8, !tbaa !15
  %201 = call i32 (ptr, ...) @printf(ptr noundef @.str.78, ptr noundef %200)
  %202 = load ptr, ptr %2, align 8, !tbaa !39
  %203 = load i32, ptr %1, align 4, !tbaa !9
  %204 = add nsw i32 %203, 1
  store i32 %204, ptr %1, align 4, !tbaa !9
  %205 = sext i32 %204 to i64
  %206 = getelementptr inbounds ptr, ptr %202, i64 %205
  %207 = load ptr, ptr %206, align 8, !tbaa !15
  %208 = call i32 (ptr, ...) @printf(ptr noundef @.str.78, ptr noundef %207)
  %209 = load ptr, ptr %2, align 8, !tbaa !39
  %210 = load i32, ptr %1, align 4, !tbaa !9
  %211 = add nsw i32 %210, 1
  store i32 %211, ptr %1, align 4, !tbaa !9
  %212 = sext i32 %211 to i64
  %213 = getelementptr inbounds ptr, ptr %209, i64 %212
  %214 = load ptr, ptr %213, align 8, !tbaa !15
  %215 = call i32 (ptr, ...) @printf(ptr noundef @.str.78, ptr noundef %214)
  %216 = load ptr, ptr %2, align 8, !tbaa !39
  %217 = load i32, ptr %1, align 4, !tbaa !9
  %218 = add nsw i32 %217, 1
  store i32 %218, ptr %1, align 4, !tbaa !9
  %219 = sext i32 %218 to i64
  %220 = getelementptr inbounds ptr, ptr %216, i64 %219
  %221 = load ptr, ptr %220, align 8, !tbaa !15
  %222 = call i32 (ptr, ...) @printf(ptr noundef @.str.78, ptr noundef %221)
  %223 = load ptr, ptr %2, align 8, !tbaa !39
  %224 = load i32, ptr %1, align 4, !tbaa !9
  %225 = add nsw i32 %224, 1
  store i32 %225, ptr %1, align 4, !tbaa !9
  %226 = sext i32 %225 to i64
  %227 = getelementptr inbounds ptr, ptr %223, i64 %226
  %228 = load ptr, ptr %227, align 8, !tbaa !15
  %229 = call i32 (ptr, ...) @printf(ptr noundef @.str.78, ptr noundef %228)
  %230 = load ptr, ptr %2, align 8, !tbaa !39
  %231 = load i32, ptr %1, align 4, !tbaa !9
  %232 = add nsw i32 %231, 1
  store i32 %232, ptr %1, align 4, !tbaa !9
  %233 = sext i32 %232 to i64
  %234 = getelementptr inbounds ptr, ptr %230, i64 %233
  %235 = load ptr, ptr %234, align 8, !tbaa !15
  %236 = call i32 (ptr, ...) @printf(ptr noundef @.str.78, ptr noundef %235)
  %237 = call i32 (ptr, ...) @printf(ptr noundef @.str.81)
  %238 = load ptr, ptr %2, align 8, !tbaa !39
  %239 = load i32, ptr %1, align 4, !tbaa !9
  %240 = add nsw i32 %239, 1
  store i32 %240, ptr %1, align 4, !tbaa !9
  %241 = sext i32 %240 to i64
  %242 = getelementptr inbounds ptr, ptr %238, i64 %241
  %243 = load ptr, ptr %242, align 8, !tbaa !15
  %244 = call i32 (ptr, ...) @printf(ptr noundef @.str.78, ptr noundef %243)
  %245 = load ptr, ptr %2, align 8, !tbaa !39
  %246 = load i32, ptr %1, align 4, !tbaa !9
  %247 = add nsw i32 %246, 1
  store i32 %247, ptr %1, align 4, !tbaa !9
  %248 = sext i32 %247 to i64
  %249 = getelementptr inbounds ptr, ptr %245, i64 %248
  %250 = load ptr, ptr %249, align 8, !tbaa !15
  %251 = call i32 (ptr, ...) @printf(ptr noundef @.str.78, ptr noundef %250)
  %252 = load ptr, ptr %2, align 8, !tbaa !39
  %253 = load i32, ptr %1, align 4, !tbaa !9
  %254 = add nsw i32 %253, 1
  store i32 %254, ptr %1, align 4, !tbaa !9
  %255 = sext i32 %254 to i64
  %256 = getelementptr inbounds ptr, ptr %252, i64 %255
  %257 = load ptr, ptr %256, align 8, !tbaa !15
  %258 = call i32 (ptr, ...) @printf(ptr noundef @.str.78, ptr noundef %257)
  %259 = load ptr, ptr %2, align 8, !tbaa !39
  %260 = load i32, ptr %1, align 4, !tbaa !9
  %261 = add nsw i32 %260, 1
  store i32 %261, ptr %1, align 4, !tbaa !9
  %262 = sext i32 %261 to i64
  %263 = getelementptr inbounds ptr, ptr %259, i64 %262
  %264 = load ptr, ptr %263, align 8, !tbaa !15
  %265 = call i32 (ptr, ...) @printf(ptr noundef @.str.78, ptr noundef %264)
  %266 = load ptr, ptr %2, align 8, !tbaa !39
  %267 = load i32, ptr %1, align 4, !tbaa !9
  %268 = add nsw i32 %267, 1
  store i32 %268, ptr %1, align 4, !tbaa !9
  %269 = sext i32 %268 to i64
  %270 = getelementptr inbounds ptr, ptr %266, i64 %269
  %271 = load ptr, ptr %270, align 8, !tbaa !15
  %272 = call i32 (ptr, ...) @printf(ptr noundef @.str.78, ptr noundef %271)
  %273 = load ptr, ptr %2, align 8, !tbaa !39
  %274 = load i32, ptr %1, align 4, !tbaa !9
  %275 = add nsw i32 %274, 1
  store i32 %275, ptr %1, align 4, !tbaa !9
  %276 = sext i32 %275 to i64
  %277 = getelementptr inbounds ptr, ptr %273, i64 %276
  %278 = load ptr, ptr %277, align 8, !tbaa !15
  %279 = call i32 (ptr, ...) @printf(ptr noundef @.str.78, ptr noundef %278)
  call void @llvm.lifetime.end.p0(i64 8, ptr %2) #13
  call void @llvm.lifetime.end.p0(i64 4, ptr %1) #13
  ret void
}