; Function Attrs: nofree nounwind uwtable
define internal fastcc void @Usage() unnamed_addr #5 {
  %1 = load i32, ptr @lng_index, align 4, !tbaa !4
  %2 = sext i32 %1 to i64
  %3 = getelementptr inbounds [2 x [66 x ptr]], ptr @server_usage_msg, i64 0, i64 %2
  %4 = load ptr, ptr %3, align 16, !tbaa !27
  %5 = tail call i32 (ptr, ...) @printf(ptr noundef nonnull dereferenceable(1) @.str.75, ptr noundef nonnull @.str.76, ptr noundef nonnull @.str.77, ptr noundef %4)
  %6 = getelementptr inbounds nuw i8, ptr %3, i64 8
  %7 = load ptr, ptr %6, align 8, !tbaa !27
  %8 = tail call i32 (ptr, ...) @printf(ptr noundef nonnull dereferenceable(1) @.str.78, ptr noundef %7)
  %9 = getelementptr inbounds nuw i8, ptr %3, i64 16
  %10 = load ptr, ptr %9, align 16, !tbaa !27
  %11 = tail call i32 (ptr, ...) @printf(ptr noundef nonnull dereferenceable(1) @.str.79, ptr noundef %10, i32 noundef 11111)
  %12 = getelementptr inbounds nuw i8, ptr %3, i64 24
  %13 = load ptr, ptr %12, align 8, !tbaa !27
  %14 = tail call i32 (ptr, ...) @printf(ptr noundef nonnull dereferenceable(1) @.str.79, ptr noundef %13, i32 noundef 3)
  %15 = getelementptr inbounds nuw i8, ptr %3, i64 32
  %16 = load ptr, ptr %15, align 16, !tbaa !27
  %17 = tail call i32 (ptr, ...) @printf(ptr noundef nonnull dereferenceable(1) @.str.78, ptr noundef %16)
  %18 = getelementptr inbounds nuw i8, ptr %3, i64 40
  %19 = load ptr, ptr %18, align 8, !tbaa !27
  %20 = tail call i32 (ptr, ...) @printf(ptr noundef nonnull dereferenceable(1) @.str.80, ptr noundef %19, ptr noundef nonnull @.str.14)
  %21 = getelementptr inbounds nuw i8, ptr %3, i64 48
  %22 = load ptr, ptr %21, align 16, !tbaa !27
  %23 = tail call i32 (ptr, ...) @printf(ptr noundef nonnull dereferenceable(1) @.str.80, ptr noundef %22, ptr noundef nonnull @.str.15)
  %24 = getelementptr inbounds nuw i8, ptr %3, i64 56
  %25 = load ptr, ptr %24, align 8, !tbaa !27
  %26 = tail call i32 (ptr, ...) @printf(ptr noundef nonnull dereferenceable(1) @.str.80, ptr noundef %25, ptr noundef nonnull @.str.13)
  %27 = getelementptr inbounds nuw i8, ptr %3, i64 64
  %28 = load ptr, ptr %27, align 16, !tbaa !27
  %29 = tail call i32 (ptr, ...) @printf(ptr noundef nonnull dereferenceable(1) @.str.78, ptr noundef %28)
  %30 = getelementptr inbounds nuw i8, ptr %3, i64 72
  %31 = load ptr, ptr %30, align 8, !tbaa !27
  %32 = tail call i32 (ptr, ...) @printf(ptr noundef nonnull dereferenceable(1) @.str.80, ptr noundef %31, ptr noundef nonnull @.str.12)
  %33 = getelementptr inbounds nuw i8, ptr %3, i64 80
  %34 = load ptr, ptr %33, align 16, !tbaa !27
  %35 = tail call i32 (ptr, ...) @printf(ptr noundef nonnull dereferenceable(1) @.str.79, ptr noundef %34, i32 noundef 1024)
  %36 = getelementptr inbounds nuw i8, ptr %3, i64 88
  %37 = load ptr, ptr %36, align 8, !tbaa !27
  %38 = tail call i32 (ptr, ...) @printf(ptr noundef nonnull dereferenceable(1) @.str.78, ptr noundef %37)
  %39 = getelementptr inbounds nuw i8, ptr %3, i64 96
  %40 = load ptr, ptr %39, align 16, !tbaa !27
  %41 = tail call i32 (ptr, ...) @printf(ptr noundef nonnull dereferenceable(1) @.str.78, ptr noundef %40)
  %42 = getelementptr inbounds nuw i8, ptr %3, i64 104
  %43 = load ptr, ptr %42, align 8, !tbaa !27
  %44 = tail call i32 (ptr, ...) @printf(ptr noundef nonnull dereferenceable(1) @.str.78, ptr noundef %43)
  %45 = getelementptr inbounds nuw i8, ptr %3, i64 112
  %46 = load ptr, ptr %45, align 16, !tbaa !27
  %47 = tail call i32 (ptr, ...) @printf(ptr noundef nonnull dereferenceable(1) @.str.78, ptr noundef %46)
  %48 = getelementptr inbounds nuw i8, ptr %3, i64 120
  %49 = load ptr, ptr %48, align 8, !tbaa !27
  %50 = tail call i32 (ptr, ...) @printf(ptr noundef nonnull dereferenceable(1) @.str.78, ptr noundef %49)
  %51 = getelementptr inbounds nuw i8, ptr %3, i64 128
  %52 = load ptr, ptr %51, align 16, !tbaa !27
  %53 = tail call i32 (ptr, ...) @printf(ptr noundef nonnull dereferenceable(1) @.str.78, ptr noundef %52)
  %54 = getelementptr inbounds nuw i8, ptr %3, i64 136
  %55 = load ptr, ptr %54, align 8, !tbaa !27
  %56 = tail call i32 (ptr, ...) @printf(ptr noundef nonnull dereferenceable(1) @.str.78, ptr noundef %55)
  %57 = getelementptr inbounds nuw i8, ptr %3, i64 144
  %58 = load ptr, ptr %57, align 16, !tbaa !27
  %59 = tail call i32 (ptr, ...) @printf(ptr noundef nonnull dereferenceable(1) @.str.78, ptr noundef %58)
  %60 = getelementptr inbounds nuw i8, ptr %3, i64 152
  %61 = load ptr, ptr %60, align 8, !tbaa !27
  %62 = tail call i32 (ptr, ...) @printf(ptr noundef nonnull dereferenceable(1) @.str.78, ptr noundef %61)
  %63 = getelementptr inbounds nuw i8, ptr %3, i64 160
  %64 = load ptr, ptr %63, align 16, !tbaa !27
  %65 = tail call i32 (ptr, ...) @printf(ptr noundef nonnull dereferenceable(1) @.str.78, ptr noundef %64)
  %66 = getelementptr inbounds nuw i8, ptr %3, i64 168
  %67 = load ptr, ptr %66, align 8, !tbaa !27
  %68 = tail call i32 (ptr, ...) @printf(ptr noundef nonnull dereferenceable(1) @.str.78, ptr noundef %67)
  %69 = getelementptr inbounds nuw i8, ptr %3, i64 176
  %70 = load ptr, ptr %69, align 16, !tbaa !27
  %71 = tail call i32 (ptr, ...) @printf(ptr noundef nonnull dereferenceable(1) @.str.78, ptr noundef %70)
  %72 = getelementptr inbounds nuw i8, ptr %3, i64 184
  %73 = load ptr, ptr %72, align 8, !tbaa !27
  %74 = tail call i32 (ptr, ...) @printf(ptr noundef nonnull dereferenceable(1) @.str.78, ptr noundef %73)
  %75 = getelementptr inbounds nuw i8, ptr %3, i64 192
  %76 = load ptr, ptr %75, align 16, !tbaa !27
  %77 = tail call i32 (ptr, ...) @printf(ptr noundef nonnull dereferenceable(1) @.str.78, ptr noundef %76)
  %78 = getelementptr inbounds nuw i8, ptr %3, i64 200
  %79 = load ptr, ptr %78, align 8, !tbaa !27
  %80 = tail call i32 (ptr, ...) @printf(ptr noundef nonnull dereferenceable(1) @.str.78, ptr noundef %79)
  %81 = getelementptr inbounds nuw i8, ptr %3, i64 208
  %82 = load ptr, ptr %81, align 16, !tbaa !27
  %83 = tail call i32 (ptr, ...) @printf(ptr noundef nonnull dereferenceable(1) @.str.78, ptr noundef %82)
  %puts77 = tail call i32 @puts(ptr nonnull dereferenceable(1) @str.13)
  %84 = getelementptr inbounds nuw i8, ptr %3, i64 224
  %85 = load ptr, ptr %84, align 16, !tbaa !27
  %86 = tail call i32 (ptr, ...) @printf(ptr noundef nonnull dereferenceable(1) @.str.78, ptr noundef %85)
  %87 = getelementptr inbounds nuw i8, ptr %3, i64 232
  %88 = load ptr, ptr %87, align 8, !tbaa !27
  %89 = tail call i32 (ptr, ...) @printf(ptr noundef nonnull dereferenceable(1) @.str.78, ptr noundef %88)
  %90 = getelementptr inbounds nuw i8, ptr %3, i64 240
  %91 = load ptr, ptr %90, align 16, !tbaa !27
  %92 = tail call i32 (ptr, ...) @printf(ptr noundef nonnull dereferenceable(1) @.str.78, ptr noundef %91)
  %93 = getelementptr inbounds nuw i8, ptr %3, i64 248
  %94 = load ptr, ptr %93, align 8, !tbaa !27
  %95 = tail call i32 (ptr, ...) @printf(ptr noundef nonnull dereferenceable(1) @.str.78, ptr noundef %94)
  %96 = getelementptr inbounds nuw i8, ptr %3, i64 256
  %97 = load ptr, ptr %96, align 16, !tbaa !27
  %98 = tail call i32 (ptr, ...) @printf(ptr noundef nonnull dereferenceable(1) @.str.78, ptr noundef %97)
  %puts = tail call i32 @puts(ptr nonnull dereferenceable(1) @str.9)
  %99 = getelementptr inbounds nuw i8, ptr %3, i64 264
  %100 = load ptr, ptr %99, align 8, !tbaa !27
  %101 = tail call i32 (ptr, ...) @printf(ptr noundef nonnull dereferenceable(1) @.str.78, ptr noundef %100)
  %102 = getelementptr inbounds nuw i8, ptr %3, i64 272
  %103 = load ptr, ptr %102, align 16, !tbaa !27
  %104 = tail call i32 (ptr, ...) @printf(ptr noundef nonnull dereferenceable(1) @.str.78, ptr noundef %103)
  %105 = getelementptr inbounds nuw i8, ptr %3, i64 280
  %106 = load ptr, ptr %105, align 8, !tbaa !27
  %107 = tail call i32 (ptr, ...) @printf(ptr noundef nonnull dereferenceable(1) @.str.78, ptr noundef %106)
  %108 = getelementptr inbounds nuw i8, ptr %3, i64 288
  %109 = load ptr, ptr %108, align 16, !tbaa !27
  %110 = tail call i32 (ptr, ...) @printf(ptr noundef nonnull dereferenceable(1) @.str.78, ptr noundef %109)
  %111 = getelementptr inbounds nuw i8, ptr %3, i64 296
  %112 = load ptr, ptr %111, align 8, !tbaa !27
  %113 = tail call i32 (ptr, ...) @printf(ptr noundef nonnull dereferenceable(1) @.str.78, ptr noundef %112)
  %114 = getelementptr inbounds nuw i8, ptr %3, i64 304
  %115 = load ptr, ptr %114, align 16, !tbaa !27
  %116 = tail call i32 (ptr, ...) @printf(ptr noundef nonnull dereferenceable(1) @.str.78, ptr noundef %115)
  ret void
}